; Listing generated by Microsoft (R) Optimizing Compiler Version 19.12.25835.0 

	TITLE	C:\Users\DOTlaptop\source\repos\ch107_PLA\ch107_PLA\ch107_PLA.c
	.686P
	.XMM
	include listing.inc
	.model	flat

INCLUDELIB LIBCMT
INCLUDELIB OLDNAMES

_DATA	SEGMENT
$SG7336	DB	'%d', 00H
	ORG $+1
$SG7337	DB	'get_num is %d', 00H
_DATA	ENDS
PUBLIC	___local_stdio_printf_options
PUBLIC	___local_stdio_scanf_options
PUBLIC	__vfprintf_l
PUBLIC	_printf
PUBLIC	__vfscanf_l
PUBLIC	_scanf
PUBLIC	_main
EXTRN	___acrt_iob_func:PROC
EXTRN	___stdio_common_vfprintf:PROC
EXTRN	___stdio_common_vfscanf:PROC
_DATA	SEGMENT
COMM	?_OptionsStorage@?1??__local_stdio_printf_options@@9@9:QWORD							; `__local_stdio_printf_options'::`2'::_OptionsStorage
COMM	?_OptionsStorage@?1??__local_stdio_scanf_options@@9@9:QWORD							; `__local_stdio_scanf_options'::`2'::_OptionsStorage
_DATA	ENDS
; Function compile flags: /Odtp
_TEXT	SEGMENT
_get_num$ = -4						; size = 4
_main	PROC
; File c:\users\dotlaptop\source\repos\ch107_pla\ch107_pla\ch107_pla.c
; Line 34
	push	ebp
	mov	ebp, esp
	push	ecx
; Line 36
	mov	DWORD PTR _get_num$[ebp], 0
; Line 37
	lea	eax, DWORD PTR _get_num$[ebp]
	push	eax
	push	OFFSET $SG7336
	call	_scanf
	add	esp, 8
; Line 38
	mov	ecx, DWORD PTR _get_num$[ebp]
	push	ecx
	push	OFFSET $SG7337
	call	_printf
	add	esp, 8
$LN2@main:
; Line 42
	mov	edx, 1
	test	edx, edx
	je	SHORT $LN1@main
; Line 44
	xor	eax, eax
	jmp	SHORT $LN1@main
	jmp	SHORT $LN2@main
$LN1@main:
; Line 45
	mov	esp, ebp
	pop	ebp
	ret	0
_main	ENDP
_TEXT	ENDS
; Function compile flags: /Odtp
;	COMDAT _scanf
_TEXT	SEGMENT
__Result$ = -8						; size = 4
__ArgList$ = -4						; size = 4
__Format$ = 8						; size = 4
_scanf	PROC						; COMDAT
; File c:\program files (x86)\windows kits\10\include\10.0.17134.0\ucrt\stdio.h
; Line 1280
	push	ebp
	mov	ebp, esp
	sub	esp, 8
; Line 1283
	lea	eax, DWORD PTR __Format$[ebp+4]
	mov	DWORD PTR __ArgList$[ebp], eax
; Line 1284
	mov	ecx, DWORD PTR __ArgList$[ebp]
	push	ecx
	push	0
	mov	edx, DWORD PTR __Format$[ebp]
	push	edx
	push	0
	call	___acrt_iob_func
	add	esp, 4
	push	eax
	call	__vfscanf_l
	add	esp, 16					; 00000010H
	mov	DWORD PTR __Result$[ebp], eax
; Line 1285
	mov	DWORD PTR __ArgList$[ebp], 0
; Line 1286
	mov	eax, DWORD PTR __Result$[ebp]
; Line 1287
	mov	esp, ebp
	pop	ebp
	ret	0
_scanf	ENDP
_TEXT	ENDS
; Function compile flags: /Odtp
;	COMDAT __vfscanf_l
_TEXT	SEGMENT
__Stream$ = 8						; size = 4
__Format$ = 12						; size = 4
__Locale$ = 16						; size = 4
__ArgList$ = 20						; size = 4
__vfscanf_l PROC					; COMDAT
; File c:\program files (x86)\windows kits\10\include\10.0.17134.0\ucrt\stdio.h
; Line 1062
	push	ebp
	mov	ebp, esp
; Line 1063
	mov	eax, DWORD PTR __ArgList$[ebp]
	push	eax
	mov	ecx, DWORD PTR __Locale$[ebp]
	push	ecx
	mov	edx, DWORD PTR __Format$[ebp]
	push	edx
	mov	eax, DWORD PTR __Stream$[ebp]
	push	eax
	call	___local_stdio_scanf_options
	mov	ecx, DWORD PTR [eax+4]
	push	ecx
	mov	edx, DWORD PTR [eax]
	push	edx
	call	___stdio_common_vfscanf
	add	esp, 24					; 00000018H
; Line 1066
	pop	ebp
	ret	0
__vfscanf_l ENDP
_TEXT	ENDS
; Function compile flags: /Odtp
;	COMDAT _printf
_TEXT	SEGMENT
__Result$ = -8						; size = 4
__ArgList$ = -4						; size = 4
__Format$ = 8						; size = 4
_printf	PROC						; COMDAT
; File c:\program files (x86)\windows kits\10\include\10.0.17134.0\ucrt\stdio.h
; Line 954
	push	ebp
	mov	ebp, esp
	sub	esp, 8
; Line 957
	lea	eax, DWORD PTR __Format$[ebp+4]
	mov	DWORD PTR __ArgList$[ebp], eax
; Line 958
	mov	ecx, DWORD PTR __ArgList$[ebp]
	push	ecx
	push	0
	mov	edx, DWORD PTR __Format$[ebp]
	push	edx
	push	1
	call	___acrt_iob_func
	add	esp, 4
	push	eax
	call	__vfprintf_l
	add	esp, 16					; 00000010H
	mov	DWORD PTR __Result$[ebp], eax
; Line 959
	mov	DWORD PTR __ArgList$[ebp], 0
; Line 960
	mov	eax, DWORD PTR __Result$[ebp]
; Line 961
	mov	esp, ebp
	pop	ebp
	ret	0
_printf	ENDP
_TEXT	ENDS
; Function compile flags: /Odtp
;	COMDAT __vfprintf_l
_TEXT	SEGMENT
__Stream$ = 8						; size = 4
__Format$ = 12						; size = 4
__Locale$ = 16						; size = 4
__ArgList$ = 20						; size = 4
__vfprintf_l PROC					; COMDAT
; File c:\program files (x86)\windows kits\10\include\10.0.17134.0\ucrt\stdio.h
; Line 642
	push	ebp
	mov	ebp, esp
; Line 643
	mov	eax, DWORD PTR __ArgList$[ebp]
	push	eax
	mov	ecx, DWORD PTR __Locale$[ebp]
	push	ecx
	mov	edx, DWORD PTR __Format$[ebp]
	push	edx
	mov	eax, DWORD PTR __Stream$[ebp]
	push	eax
	call	___local_stdio_printf_options
	mov	ecx, DWORD PTR [eax+4]
	push	ecx
	mov	edx, DWORD PTR [eax]
	push	edx
	call	___stdio_common_vfprintf
	add	esp, 24					; 00000018H
; Line 644
	pop	ebp
	ret	0
__vfprintf_l ENDP
_TEXT	ENDS
; Function compile flags: /Odtp
;	COMDAT ___local_stdio_scanf_options
_TEXT	SEGMENT
___local_stdio_scanf_options PROC			; COMDAT
; File c:\program files (x86)\windows kits\10\include\10.0.17134.0\ucrt\corecrt_stdio_config.h
; Line 94
	push	ebp
	mov	ebp, esp
; Line 96
	mov	eax, OFFSET ?_OptionsStorage@?1??__local_stdio_scanf_options@@9@9 ; `__local_stdio_scanf_options'::`2'::_OptionsStorage
; Line 97
	pop	ebp
	ret	0
___local_stdio_scanf_options ENDP
_TEXT	ENDS
; Function compile flags: /Odtp
;	COMDAT ___local_stdio_printf_options
_TEXT	SEGMENT
___local_stdio_printf_options PROC			; COMDAT
; File c:\program files (x86)\windows kits\10\include\10.0.17134.0\ucrt\corecrt_stdio_config.h
; Line 85
	push	ebp
	mov	ebp, esp
; Line 87
	mov	eax, OFFSET ?_OptionsStorage@?1??__local_stdio_printf_options@@9@9 ; `__local_stdio_printf_options'::`2'::_OptionsStorage
; Line 88
	pop	ebp
	ret	0
___local_stdio_printf_options ENDP
_TEXT	ENDS
END
